target datalayout = "e-m:e-p270:32:32-p271:32:32-p272:64:64-i64:64-i128:128-f80:128-n8:16:32:64-S128"
target triple = "x86_64-pc-linux-gnu"

%"class.icu_77::UObject" = type { ptr }
%"class.icu_77::Locale" = type <{ %"class.icu_77::UObject", [12 x i8], [6 x i8], [4 x i8], [2 x i8], i32, [4 x i8], ptr, [157 x i8], [3 x i8], ptr, i8, [7 x i8] }>
%"class.icu_77::RelativeDateTimeFormatter" = type { %"class.icu_77::UObject", ptr, ptr, ptr, i32, i32, ptr, %"class.icu_77::Locale" }

; Function Attrs: mustprogress nounwind uwtable
define void @_ZN6icu_7725RelativeDateTimeFormatterD2Ev(ptr noundef nonnull align 8 dereferenceable(272) %0) unnamed_addr #0 align 2 personality ptr @__gxx_personality_v0 {
  %2 = alloca ptr, align 8
  store ptr %0, ptr %2, align 8, !tbaa !94
  %3 = load ptr, ptr %2, align 8
  store ptr getelementptr inbounds inrange(-16, 24) ({ [5 x ptr] }, ptr @_ZTVN6icu_7725RelativeDateTimeFormatterE, i32 0, i32 0, i32 2), ptr %3, align 8, !tbaa !25
  %4 = getelementptr inbounds nuw %"class.icu_77::RelativeDateTimeFormatter", ptr %3, i32 0, i32 1
  %5 = load ptr, ptr %4, align 8, !tbaa !96
  %6 = icmp ne ptr %5, null
  br i1 %6, label %7, label %11

7:                                                ; preds = %1
  %8 = getelementptr inbounds nuw %"class.icu_77::RelativeDateTimeFormatter", ptr %3, i32 0, i32 1
  %9 = load ptr, ptr %8, align 8, !tbaa !96
  invoke void @_ZNK6icu_7712SharedObject9removeRefEv(ptr noundef nonnull align 8 dereferenceable(24) %9)
          to label %10 unwind label %37

10:                                               ; preds = %7
  br label %11

11:                                               ; preds = %10, %1
  %12 = getelementptr inbounds nuw %"class.icu_77::RelativeDateTimeFormatter", ptr %3, i32 0, i32 2
  %13 = load ptr, ptr %12, align 8, !tbaa !103
  %14 = icmp ne ptr %13, null
  br i1 %14, label %15, label %19

15:                                               ; preds = %11
  %16 = getelementptr inbounds nuw %"class.icu_77::RelativeDateTimeFormatter", ptr %3, i32 0, i32 2
  %17 = load ptr, ptr %16, align 8, !tbaa !103
  invoke void @_ZNK6icu_7712SharedObject9removeRefEv(ptr noundef nonnull align 8 dereferenceable(24) %17)
          to label %18 unwind label %37

18:                                               ; preds = %15
  br label %19

19:                                               ; preds = %18, %11
  %20 = getelementptr inbounds nuw %"class.icu_77::RelativeDateTimeFormatter", ptr %3, i32 0, i32 3
  %21 = load ptr, ptr %20, align 8, !tbaa !104
  %22 = icmp ne ptr %21, null
  br i1 %22, label %23, label %27

23:                                               ; preds = %19
  %24 = getelementptr inbounds nuw %"class.icu_77::RelativeDateTimeFormatter", ptr %3, i32 0, i32 3
  %25 = load ptr, ptr %24, align 8, !tbaa !104
  invoke void @_ZNK6icu_7712SharedObject9removeRefEv(ptr noundef nonnull align 8 dereferenceable(24) %25)
          to label %26 unwind label %37

26:                                               ; preds = %23
  br label %27

27:                                               ; preds = %26, %19
  %28 = getelementptr inbounds nuw %"class.icu_77::RelativeDateTimeFormatter", ptr %3, i32 0, i32 6
  %29 = load ptr, ptr %28, align 8, !tbaa !107
  %30 = icmp ne ptr %29, null
  br i1 %30, label %31, label %35

31:                                               ; preds = %27
  %32 = getelementptr inbounds nuw %"class.icu_77::RelativeDateTimeFormatter", ptr %3, i32 0, i32 6
  %33 = load ptr, ptr %32, align 8, !tbaa !107
  invoke void @_ZNK6icu_7712SharedObject9removeRefEv(ptr noundef nonnull align 8 dereferenceable(24) %33)
          to label %34 unwind label %37

34:                                               ; preds = %31
  br label %35

35:                                               ; preds = %34, %27
  %36 = getelementptr inbounds nuw %"class.icu_77::RelativeDateTimeFormatter", ptr %3, i32 0, i32 7
  call void @_ZN6icu_776LocaleD1Ev(ptr noundef nonnull align 8 dereferenceable(217) %36) #12
  call void @_ZN6icu_777UObjectD2Ev(ptr noundef nonnull align 8 dereferenceable(8) %3) #12
  ret void

37:                                               ; preds = %31, %23, %15, %7
  %38 = landingpad { ptr, i32 }
          catch ptr null
  %39 = extractvalue { ptr, i32 } %38, 0
  call void @__clang_call_terminate(ptr %39) #14
  unreachable
}